; Function Attrs: nounwind uwtable
define internal ptr @lxb_html_tokenizer_state_script_data_escaped_dash_dash(ptr nocapture noundef %0, ptr noundef %1, ptr noundef readnone %2) #1 {
  %4 = load i8, ptr %1, align 1
  switch i8 %4, label %59 [
    i8 45, label %5
    i8 60, label %30
    i8 62, label %58
  ]

5:                                                ; preds = %3
  %6 = getelementptr inbounds i8, ptr %0, i64 136
  %7 = load ptr, ptr %6, align 8
  %8 = getelementptr inbounds i8, ptr %7, i64 1
  %9 = getelementptr inbounds i8, ptr %0, i64 144
  %10 = load ptr, ptr %9, align 8
  %11 = icmp ugt ptr %8, %10
  br i1 %11, label %12, label %26

12:                                               ; preds = %5
  %13 = getelementptr inbounds i8, ptr %0, i64 128
  %14 = load ptr, ptr %13, align 8
  %15 = ptrtoint ptr %14 to i64
  %16 = ptrtoint ptr %10 to i64
  %17 = add i64 %16, 4097
  %18 = sub i64 %17, %15
  %19 = tail call ptr @lexbor_realloc(ptr noundef %14, i64 noundef %18) #6
  store ptr %19, ptr %13, align 8
  %20 = icmp eq ptr %19, null
  br i1 %20, label %lxb_html_tokenizer_temp_append.exit, label %lxb_html_tokenizer_temp_realloc.exit.thread.i

lxb_html_tokenizer_temp_realloc.exit.thread.i:    ; preds = %12
  %21 = ptrtoint ptr %7 to i64
  %22 = sub i64 %21, %15
  %23 = getelementptr inbounds i8, ptr %19, i64 %22
  %24 = getelementptr inbounds i8, ptr %19, i64 %18
  store ptr %24, ptr %9, align 8
  br label %26

lxb_html_tokenizer_temp_append.exit:              ; preds = %12
  %25 = getelementptr inbounds i8, ptr %0, i64 232
  store i32 2, ptr %25, align 8
  br label %60

26:                                               ; preds = %5, %lxb_html_tokenizer_temp_realloc.exit.thread.i
  %27 = phi ptr [ %23, %lxb_html_tokenizer_temp_realloc.exit.thread.i ], [ %7, %5 ]
  store i8 45, ptr %27, align 1
  %28 = getelementptr inbounds i8, ptr %27, i64 1
  store ptr %28, ptr %6, align 8
  %29 = getelementptr inbounds i8, ptr %1, i64 1
  br label %60

30:                                               ; preds = %3
  %31 = getelementptr inbounds i8, ptr %0, i64 136
  %32 = load ptr, ptr %31, align 8
  %33 = getelementptr inbounds i8, ptr %32, i64 1
  %34 = getelementptr inbounds i8, ptr %0, i64 144
  %35 = load ptr, ptr %34, align 8
  %36 = icmp ugt ptr %33, %35
  br i1 %36, label %37, label %51

37:                                               ; preds = %30
  %38 = getelementptr inbounds i8, ptr %0, i64 128
  %39 = load ptr, ptr %38, align 8
  %40 = ptrtoint ptr %39 to i64
  %41 = ptrtoint ptr %35 to i64
  %42 = add i64 %41, 4097
  %43 = sub i64 %42, %40
  %44 = tail call ptr @lexbor_realloc(ptr noundef %39, i64 noundef %43) #6
  store ptr %44, ptr %38, align 8
  %45 = icmp eq ptr %44, null
  br i1 %45, label %lxb_html_tokenizer_temp_append.exit18, label %lxb_html_tokenizer_temp_realloc.exit.thread.i17

lxb_html_tokenizer_temp_realloc.exit.thread.i17:  ; preds = %37
  %46 = ptrtoint ptr %32 to i64
  %47 = sub i64 %46, %40
  %48 = getelementptr inbounds i8, ptr %44, i64 %47
  %49 = getelementptr inbounds i8, ptr %44, i64 %43
  store ptr %49, ptr %34, align 8
  br label %51

lxb_html_tokenizer_temp_append.exit18:            ; preds = %37
  %50 = getelementptr inbounds i8, ptr %0, i64 232
  store i32 2, ptr %50, align 8
  br label %60

51:                                               ; preds = %30, %lxb_html_tokenizer_temp_realloc.exit.thread.i17
  %52 = phi ptr [ %48, %lxb_html_tokenizer_temp_realloc.exit.thread.i17 ], [ %32, %30 ]
  store i8 60, ptr %52, align 1
  %53 = getelementptr inbounds i8, ptr %52, i64 1
  store ptr %53, ptr %31, align 8
  %54 = getelementptr inbounds i8, ptr %0, i64 64
  %55 = load ptr, ptr %54, align 8
  %56 = getelementptr inbounds i8, ptr %55, i64 8
  store ptr %1, ptr %56, align 8
  store ptr @lxb_html_tokenizer_state_script_data_escaped_less_than_sign, ptr %0, align 8
  %57 = getelementptr inbounds i8, ptr %1, i64 1
  br label %60

58:                                               ; preds = %3
  store ptr @lxb_html_tokenizer_state_script_data, ptr %0, align 8
  br label %60

59:                                               ; preds = %3
  store ptr @lxb_html_tokenizer_state_script_data_escaped, ptr %0, align 8
  br label %60

60:                                               ; preds = %lxb_html_tokenizer_temp_append.exit18, %26, %lxb_html_tokenizer_temp_append.exit, %59, %58, %51
  %.0 = phi ptr [ %1, %59 ], [ %1, %58 ], [ %57, %51 ], [ %2, %lxb_html_tokenizer_temp_append.exit18 ], [ %29, %26 ], [ %2, %lxb_html_tokenizer_temp_append.exit ]
  ret ptr %.0
}